target datalayout = "e-m:e-p270:32:32-p271:32:32-p272:64:64-i64:64-i128:128-f80:128-n8:16:32:64-S128"
target triple = "x86_64-pc-linux-gnu"

%struct.SDL_Surface = type { i32, i32, i32, i32, i32, ptr, i32, ptr, i32, i32, ptr, i32, ptr, i32, ptr, i32, %struct.SDL_Rect, %struct.SDL_BlitMap }
%struct.SDL_Rect = type { i32, i32, i32, i32 }
%struct.SDL_BlitMap = type { i32, ptr, ptr, %struct.SDL_BlitInfo, i32, i32 }
%struct.SDL_BlitInfo = type { ptr, ptr, i32, i32, i32, i32, ptr, ptr, i32, i32, i32, i32, ptr, ptr, ptr, ptr, ptr, ptr, i32, i32, i8, i8, i8, i8 }

@SDL_surface_magic = internal global i8 0, align 1
@.str = private unnamed_addr constant [26 x i8] c"Parameter '%s' is invalid\00", align 1
@.str.5 = private unnamed_addr constant [8 x i8] c"surface\00", align 1

; Function Attrs: nounwind uwtable
define hidden zeroext i1 @SDL_SurfaceValid(ptr noundef %0) #0 {
  %2 = alloca ptr, align 8
  store ptr %0, ptr %2, align 8
  %3 = load ptr, ptr %2, align 8
  %4 = icmp ne ptr %3, null
  br i1 %4, label %5, label %10

5:                                                ; preds = %1
  %6 = load ptr, ptr %2, align 8
  %7 = getelementptr inbounds nuw %struct.SDL_Surface, ptr %6, i32 0, i32 7
  %8 = load ptr, ptr %7, align 8
  %9 = icmp eq ptr %8, @SDL_surface_magic
  br label %10

10:                                               ; preds = %5, %1
  %11 = phi i1 [ false, %1 ], [ %9, %5 ]
  ret i1 %11
}

; Function Attrs: nounwind uwtable
define hidden zeroext i1 @SDL_PremultiplySurfaceAlpha_REAL(ptr noundef %0, i1 noundef zeroext %1) #0 {
  %3 = alloca i1, align 1
  %4 = alloca ptr, align 8
  %5 = alloca i8, align 1
  %6 = alloca i32, align 4
  %7 = alloca i32, align 4
  store ptr %0, ptr %4, align 8
  %8 = zext i1 %1 to i8
  store i8 %8, ptr %5, align 1
  call void @llvm.lifetime.start.p0(i64 4, ptr %6) #8
  %9 = load ptr, ptr %4, align 8
  %10 = call zeroext i1 @SDL_SurfaceValid(ptr noundef %9)
  br i1 %10, label %13, label %11

11:                                               ; preds = %2
  %12 = call zeroext i1 (ptr, ...) @SDL_SetError_REAL(ptr noundef @.str, ptr noundef @.str.5)
  store i1 %12, ptr %3, align 1
  store i32 1, ptr %7, align 4
  br label %52

13:                                               ; preds = %2
  %14 = load ptr, ptr %4, align 8
  %15 = getelementptr inbounds nuw %struct.SDL_Surface, ptr %14, i32 0, i32 11
  %16 = load i32, ptr %15, align 8
  store i32 %16, ptr %6, align 4
  %17 = load ptr, ptr %4, align 8
  %18 = getelementptr inbounds nuw %struct.SDL_Surface, ptr %17, i32 0, i32 2
  %19 = load i32, ptr %18, align 8
  %20 = load ptr, ptr %4, align 8
  %21 = getelementptr inbounds nuw %struct.SDL_Surface, ptr %20, i32 0, i32 3
  %22 = load i32, ptr %21, align 4
  %23 = load ptr, ptr %4, align 8
  %24 = getelementptr inbounds nuw %struct.SDL_Surface, ptr %23, i32 0, i32 1
  %25 = load i32, ptr %24, align 4
  %26 = load i32, ptr %6, align 4
  %27 = load ptr, ptr %4, align 8
  %28 = getelementptr inbounds nuw %struct.SDL_Surface, ptr %27, i32 0, i32 9
  %29 = load i32, ptr %28, align 4
  %30 = load ptr, ptr %4, align 8
  %31 = getelementptr inbounds nuw %struct.SDL_Surface, ptr %30, i32 0, i32 5
  %32 = load ptr, ptr %31, align 8
  %33 = load ptr, ptr %4, align 8
  %34 = getelementptr inbounds nuw %struct.SDL_Surface, ptr %33, i32 0, i32 4
  %35 = load i32, ptr %34, align 8
  %36 = load ptr, ptr %4, align 8
  %37 = getelementptr inbounds nuw %struct.SDL_Surface, ptr %36, i32 0, i32 1
  %38 = load i32, ptr %37, align 4
  %39 = load i32, ptr %6, align 4
  %40 = load ptr, ptr %4, align 8
  %41 = getelementptr inbounds nuw %struct.SDL_Surface, ptr %40, i32 0, i32 9
  %42 = load i32, ptr %41, align 4
  %43 = load ptr, ptr %4, align 8
  %44 = getelementptr inbounds nuw %struct.SDL_Surface, ptr %43, i32 0, i32 5
  %45 = load ptr, ptr %44, align 8
  %46 = load ptr, ptr %4, align 8
  %47 = getelementptr inbounds nuw %struct.SDL_Surface, ptr %46, i32 0, i32 4
  %48 = load i32, ptr %47, align 8
  %49 = load i8, ptr %5, align 1, !range !3, !noundef !4
  %50 = trunc i8 %49 to i1
  %51 = call zeroext i1 @SDL_PremultiplyAlphaPixelsAndColorspace(i32 noundef %19, i32 noundef %22, i32 noundef %25, i32 noundef %26, i32 noundef %29, ptr noundef %32, i32 noundef %35, i32 noundef %38, i32 noundef %39, i32 noundef %42, ptr noundef %45, i32 noundef %48, i1 noundef zeroext %50)
  store i1 %51, ptr %3, align 1
  store i32 1, ptr %7, align 4
  br label %52

52:                                               ; preds = %13, %11
  call void @llvm.lifetime.end.p0(i64 4, ptr %6) #8
  %53 = load i1, ptr %3, align 1
  ret i1 %53
}