; Function Attrs: nounwind uwtable
define hidden zeroext i1 @SDL_PremultiplySurfaceAlpha_REAL(ptr noundef readonly captures(address_is_null) %0, i1 noundef zeroext %1) local_unnamed_addr #2 {
  %.not.i = icmp eq ptr %0, null
  br i1 %.not.i, label %SDL_SurfaceValid.exit.thread, label %SDL_SurfaceValid.exit

SDL_SurfaceValid.exit:                            ; preds = %2
  %3 = getelementptr inbounds nuw i8, ptr %0, i64 40
  %4 = load ptr, ptr %3, align 8
  %5 = icmp eq ptr %4, @SDL_surface_magic
  br i1 %5, label %7, label %SDL_SurfaceValid.exit.thread

SDL_SurfaceValid.exit.thread:                     ; preds = %2, %SDL_SurfaceValid.exit
  %6 = tail call zeroext i1 (ptr, ...) @SDL_SetError_REAL(ptr noundef nonnull @.str, ptr noundef nonnull @.str.5) #10
  br label %23

7:                                                ; preds = %SDL_SurfaceValid.exit
  %8 = getelementptr inbounds nuw i8, ptr %0, i64 64
  %9 = load i32, ptr %8, align 8
  %10 = getelementptr inbounds nuw i8, ptr %0, i64 8
  %11 = load i32, ptr %10, align 8
  %12 = getelementptr inbounds nuw i8, ptr %0, i64 12
  %13 = load i32, ptr %12, align 4
  %14 = getelementptr inbounds nuw i8, ptr %0, i64 4
  %15 = load i32, ptr %14, align 4
  %16 = getelementptr inbounds nuw i8, ptr %0, i64 52
  %17 = load i32, ptr %16, align 4
  %18 = getelementptr inbounds nuw i8, ptr %0, i64 24
  %19 = load ptr, ptr %18, align 8
  %20 = getelementptr inbounds nuw i8, ptr %0, i64 16
  %21 = load i32, ptr %20, align 8
  %22 = tail call fastcc zeroext i1 @SDL_PremultiplyAlphaPixelsAndColorspace(i32 noundef %11, i32 noundef %13, i32 noundef %15, i32 noundef %9, i32 noundef %17, ptr noundef %19, i32 noundef %21, i32 noundef %15, i32 noundef %9, i32 noundef %17, ptr noundef %19, i32 noundef %21, i1 noundef zeroext %1)
  br label %23

23:                                               ; preds = %7, %SDL_SurfaceValid.exit.thread
  %.0 = phi i1 [ %22, %7 ], [ %6, %SDL_SurfaceValid.exit.thread ]
  ret i1 %.0
}